target datalayout = "e-m:e-p270:32:32-p271:32:32-p272:64:64-i64:64-i128:128-f80:128-n8:16:32:64-S128"
target triple = "x86_64-pc-linux-gnu"

%struct.DumpSignalInformation = type { ptr, ptr, i8, i8 }
%struct.ParallelSlot = type { i32, ptr, ptr, ptr, i32, i32, i32, i32, i32 }
%struct._archiveHandle = type { %struct.Archive, i32, ptr, ptr, i64, i64, i32, %struct.sqlparseInfo, i64, i32, ptr, i64, i64, i64, ptr, ptr, ptr, ptr, ptr, ptr, ptr, ptr, ptr, ptr, ptr, ptr, ptr, ptr, ptr, ptr, ptr, ptr, ptr, ptr, ptr, ptr, ptr, ptr, ptr, ptr, ptr, ptr, ptr, ptr, i32, i32, i8, i32, i8, i32, ptr, ptr, ptr, ptr, i32, i32, ptr, ptr, ptr, %struct.pg_compress_specification, i8, i32, i32, ptr, ptr, ptr, ptr, ptr, i32, ptr, i64, i64, i32, i32, i32, i32, ptr, ptr }
%struct.Archive = type { ptr, ptr, i32, ptr, i32, i8, i32, i32, i32, ptr, i32, i8, ptr, ptr, i8, i32, ptr }
%struct.sqlparseInfo = type { i32, i8, ptr }
%struct.pg_compress_specification = type { i32, i32, i32, i32, i8, ptr }
%struct.ParallelState = type { i32, ptr, ptr }

@signal_info = internal global %struct.DumpSignalInformation zeroinitializer, align 8
@progname = external global ptr, align 8
@stderr = external global ptr, align 8
@.str.2 = private unnamed_addr constant [3 x i8] c": \00", align 1
@.str.3 = private unnamed_addr constant [20 x i8] c"terminated by user\0A\00", align 1

; Function Attrs: nounwind uwtable
define internal void @sigTermHandler(i32 noundef %0) #0 {
  %2 = alloca i32, align 4
  %3 = alloca i32, align 4
  %4 = alloca [1 x i8], align 1
  %5 = alloca i32, align 4
  %6 = alloca ptr, align 8
  %7 = alloca i32, align 4
  %8 = alloca ptr, align 8
  %9 = alloca i32, align 4
  %10 = alloca ptr, align 8
  %11 = alloca i32, align 4
  store i32 %0, ptr %2, align 4
  call void @llvm.lifetime.start.p0(i64 4, ptr %3) #10
  call void @llvm.lifetime.start.p0(i64 1, ptr %4) #10
  call void @pqsignal_fe(i32 noundef 2, ptr noundef inttoptr (i64 1 to ptr))
  call void @pqsignal_fe(i32 noundef 15, ptr noundef inttoptr (i64 1 to ptr))
  call void @pqsignal_fe(i32 noundef 3, ptr noundef inttoptr (i64 1 to ptr))
  %12 = load volatile ptr, ptr getelementptr inbounds nuw (%struct.DumpSignalInformation, ptr @signal_info, i32 0, i32 1), align 8
  %13 = icmp ne ptr %12, null
  br i1 %13, label %14, label %40

14:                                               ; preds = %1
  store i32 0, ptr %3, align 4
  br label %15

15:                                               ; preds = %36, %14
  %16 = load i32, ptr %3, align 4
  %17 = load volatile ptr, ptr getelementptr inbounds nuw (%struct.DumpSignalInformation, ptr @signal_info, i32 0, i32 1), align 8
  %18 = getelementptr inbounds nuw %struct.ParallelState, ptr %17, i32 0, i32 0
  %19 = load i32, ptr %18, align 8
  %20 = icmp slt i32 %16, %19
  br i1 %20, label %21, label %39

21:                                               ; preds = %15
  call void @llvm.lifetime.start.p0(i64 4, ptr %5) #10
  %22 = load volatile ptr, ptr getelementptr inbounds nuw (%struct.DumpSignalInformation, ptr @signal_info, i32 0, i32 1), align 8
  %23 = getelementptr inbounds nuw %struct.ParallelState, ptr %22, i32 0, i32 2
  %24 = load ptr, ptr %23, align 8
  %25 = load i32, ptr %3, align 4
  %26 = sext i32 %25 to i64
  %27 = getelementptr inbounds %struct.ParallelSlot, ptr %24, i64 %26
  %28 = getelementptr inbounds nuw %struct.ParallelSlot, ptr %27, i32 0, i32 8
  %29 = load i32, ptr %28, align 8
  store i32 %29, ptr %5, align 4
  %30 = load i32, ptr %5, align 4
  %31 = icmp ne i32 %30, 0
  br i1 %31, label %32, label %35

32:                                               ; preds = %21
  %33 = load i32, ptr %5, align 4
  %34 = call i32 @kill(i32 noundef %33, i32 noundef 15) #10
  br label %35

35:                                               ; preds = %32, %21
  call void @llvm.lifetime.end.p0(i64 4, ptr %5) #10
  br label %36

36:                                               ; preds = %35
  %37 = load i32, ptr %3, align 4
  %38 = add i32 %37, 1
  store i32 %38, ptr %3, align 4
  br label %15, !llvm.loop !18

39:                                               ; preds = %15
  br label %40

40:                                               ; preds = %39, %1
  %41 = load volatile ptr, ptr @signal_info, align 8
  %42 = icmp ne ptr %41, null
  br i1 %42, label %43, label %54

43:                                               ; preds = %40
  %44 = load volatile ptr, ptr @signal_info, align 8
  %45 = getelementptr inbounds nuw %struct._archiveHandle, ptr %44, i32 0, i32 43
  %46 = load volatile ptr, ptr %45, align 8
  %47 = icmp ne ptr %46, null
  br i1 %47, label %48, label %54

48:                                               ; preds = %43
  %49 = load volatile ptr, ptr @signal_info, align 8
  %50 = getelementptr inbounds nuw %struct._archiveHandle, ptr %49, i32 0, i32 43
  %51 = load volatile ptr, ptr %50, align 8
  %52 = getelementptr inbounds [1 x i8], ptr %4, i64 0, i64 0
  %53 = call i32 @PQcancel(ptr noundef %51, ptr noundef %52, i32 noundef 1)
  br label %54

54:                                               ; preds = %48, %43, %40
  %55 = load volatile i8, ptr getelementptr inbounds nuw (%struct.DumpSignalInformation, ptr @signal_info, i32 0, i32 3), align 1, !range !4, !noundef !5
  %56 = trunc i8 %55 to i1
  br i1 %56, label %93, label %57

57:                                               ; preds = %54
  %58 = load ptr, ptr @progname, align 8
  %59 = icmp ne ptr %58, null
  br i1 %59, label %60, label %82

60:                                               ; preds = %57
  br label %61

61:                                               ; preds = %60
  call void @llvm.lifetime.start.p0(i64 8, ptr %6) #10
  %62 = load ptr, ptr @progname, align 8
  store ptr %62, ptr %6, align 8
  call void @llvm.lifetime.start.p0(i64 4, ptr %7) #10
  %63 = load ptr, ptr @stderr, align 8
  %64 = call i32 @fileno(ptr noundef %63) #10
  %65 = load ptr, ptr %6, align 8
  %66 = load ptr, ptr %6, align 8
  %67 = call i64 @strlen(ptr noundef %66) #13
  %68 = call i64 @write(i32 noundef %64, ptr noundef %65, i64 noundef %67)
  %69 = trunc i64 %68 to i32
  store i32 %69, ptr %7, align 4
  call void @llvm.lifetime.end.p0(i64 4, ptr %7) #10
  call void @llvm.lifetime.end.p0(i64 8, ptr %6) #10
  br label %70

70:                                               ; preds = %61
  br label %71

71:                                               ; preds = %70
  br label %72

72:                                               ; preds = %71
  call void @llvm.lifetime.start.p0(i64 8, ptr %8) #10
  store ptr @.str.2, ptr %8, align 8
  call void @llvm.lifetime.start.p0(i64 4, ptr %9) #10
  %73 = load ptr, ptr @stderr, align 8
  %74 = call i32 @fileno(ptr noundef %73) #10
  %75 = load ptr, ptr %8, align 8
  %76 = load ptr, ptr %8, align 8
  %77 = call i64 @strlen(ptr noundef %76) #13
  %78 = call i64 @write(i32 noundef %74, ptr noundef %75, i64 noundef %77)
  %79 = trunc i64 %78 to i32
  store i32 %79, ptr %9, align 4
  call void @llvm.lifetime.end.p0(i64 4, ptr %9) #10
  call void @llvm.lifetime.end.p0(i64 8, ptr %8) #10
  br label %80

80:                                               ; preds = %72
  br label %81

81:                                               ; preds = %80
  br label %82

82:                                               ; preds = %81, %57
  br label %83

83:                                               ; preds = %82
  call void @llvm.lifetime.start.p0(i64 8, ptr %10) #10
  store ptr @.str.3, ptr %10, align 8
  call void @llvm.lifetime.start.p0(i64 4, ptr %11) #10
  %84 = load ptr, ptr @stderr, align 8
  %85 = call i32 @fileno(ptr noundef %84) #10
  %86 = load ptr, ptr %10, align 8
  %87 = load ptr, ptr %10, align 8
  %88 = call i64 @strlen(ptr noundef %87) #13
  %89 = call i64 @write(i32 noundef %85, ptr noundef %86, i64 noundef %88)
  %90 = trunc i64 %89 to i32
  store i32 %90, ptr %11, align 4
  call void @llvm.lifetime.end.p0(i64 4, ptr %11) #10
  call void @llvm.lifetime.end.p0(i64 8, ptr %10) #10
  br label %91

91:                                               ; preds = %83
  br label %92

92:                                               ; preds = %91
  br label %93

93:                                               ; preds = %92, %54
  call void @_exit(i32 noundef 1) #11
  unreachable
}