; Function Attrs: noreturn nounwind uwtable
define internal void @sigTermHandler(i32 %0) #10 {
  %2 = alloca [1 x i8], align 1
  call void @llvm.lifetime.start.p0(i64 1, ptr nonnull %2) #18
  tail call void @pqsignal_fe(i32 noundef 2, ptr noundef nonnull inttoptr (i64 1 to ptr)) #18
  tail call void @pqsignal_fe(i32 noundef 15, ptr noundef nonnull inttoptr (i64 1 to ptr)) #18
  tail call void @pqsignal_fe(i32 noundef 3, ptr noundef nonnull inttoptr (i64 1 to ptr)) #18
  %3 = load volatile ptr, ptr getelementptr inbounds nuw (i8, ptr @signal_info, i64 8), align 8
  %.not = icmp eq ptr %3, null
  br i1 %.not, label %.loopexit, label %.preheader

.preheader:                                       ; preds = %1
  %4 = load volatile ptr, ptr getelementptr inbounds nuw (i8, ptr @signal_info, i64 8), align 8
  %5 = load i32, ptr %4, align 8
  %6 = icmp sgt i32 %5, 0
  br i1 %6, label %.lr.ph, label %.loopexit

.lr.ph:                                           ; preds = %.preheader, %14
  %indvars.iv = phi i64 [ %indvars.iv.next, %14 ], [ 0, %.preheader ]
  %7 = load volatile ptr, ptr getelementptr inbounds nuw (i8, ptr @signal_info, i64 8), align 8
  %8 = getelementptr inbounds nuw i8, ptr %7, i64 16
  %9 = load ptr, ptr %8, align 8
  %10 = getelementptr inbounds nuw %struct.ParallelSlot, ptr %9, i64 %indvars.iv, i32 8
  %11 = load i32, ptr %10, align 8
  %.not15 = icmp eq i32 %11, 0
  br i1 %.not15, label %14, label %12

12:                                               ; preds = %.lr.ph
  %13 = tail call i32 @kill(i32 noundef %11, i32 noundef 15) #18
  br label %14

14:                                               ; preds = %12, %.lr.ph
  %indvars.iv.next = add nuw nsw i64 %indvars.iv, 1
  %15 = load volatile ptr, ptr getelementptr inbounds nuw (i8, ptr @signal_info, i64 8), align 8
  %16 = load i32, ptr %15, align 8
  %17 = sext i32 %16 to i64
  %18 = icmp slt i64 %indvars.iv.next, %17
  br i1 %18, label %.lr.ph, label %.loopexit, !llvm.loop !21

.loopexit:                                        ; preds = %14, %.preheader, %1
  %19 = load volatile ptr, ptr @signal_info, align 8
  %.not12 = icmp eq ptr %19, null
  br i1 %.not12, label %29, label %20

20:                                               ; preds = %.loopexit
  %21 = load volatile ptr, ptr @signal_info, align 8
  %22 = getelementptr inbounds nuw i8, ptr %21, i64 448
  %23 = load volatile ptr, ptr %22, align 8
  %.not13 = icmp eq ptr %23, null
  br i1 %.not13, label %29, label %24

24:                                               ; preds = %20
  %25 = load volatile ptr, ptr @signal_info, align 8
  %26 = getelementptr inbounds nuw i8, ptr %25, i64 448
  %27 = load volatile ptr, ptr %26, align 8
  %28 = call i32 @PQcancel(ptr noundef %27, ptr noundef nonnull %2, i32 noundef 1) #18
  br label %29

29:                                               ; preds = %24, %20, %.loopexit
  %30 = load volatile i8, ptr getelementptr inbounds nuw (i8, ptr @signal_info, i64 17), align 1, !range !11, !noundef !12
  %31 = trunc nuw i8 %30 to i1
  br i1 %31, label %46, label %32

32:                                               ; preds = %29
  %33 = load ptr, ptr @progname, align 8
  %.not14 = icmp eq ptr %33, null
  br i1 %.not14, label %42, label %34

34:                                               ; preds = %32
  %35 = load ptr, ptr @stderr, align 8
  %36 = call i32 @fileno(ptr noundef %35) #18
  %37 = call i64 @strlen(ptr noundef nonnull dereferenceable(1) %33) #20
  %38 = call i64 @write(i32 noundef %36, ptr noundef nonnull %33, i64 noundef %37) #18
  %39 = load ptr, ptr @stderr, align 8
  %40 = call i32 @fileno(ptr noundef %39) #18
  %41 = call i64 @write(i32 noundef %40, ptr noundef nonnull @.str.2, i64 noundef 2) #18
  br label %42

42:                                               ; preds = %32, %34
  %43 = load ptr, ptr @stderr, align 8
  %44 = call i32 @fileno(ptr noundef %43) #18
  %45 = call i64 @write(i32 noundef %44, ptr noundef nonnull @.str.3, i64 noundef 19) #18
  br label %46

46:                                               ; preds = %42, %29
  call void @_exit(i32 noundef 1) #19
  unreachable
}